target datalayout = "e-m:e-p270:32:32-p271:32:32-p272:64:64-i64:64-i128:128-f80:128-n8:16:32:64-S128"
target triple = "x86_64-pc-linux-gnu"

%"struct.dpx::GenericHeader" = type { i32, i32, [8 x i8], i32, i32, i32, i32, i32, [100 x i8], [24 x i8], [100 x i8], [200 x i8], [200 x i8], i32, [104 x i8], i16, i16, i32, i32, [8 x %"struct.dpx::ImageElement"], [52 x i8], i32, i32, float, float, i32, i32, [100 x i8], [24 x i8], [32 x i8], [32 x i8], [4 x i16], [2 x i32], float, float, [20 x i8] }
%"struct.dpx::ImageElement" = type { i32, i32, float, i32, float, i8, i8, i8, i8, i16, i16, i32, i32, i32, [32 x i8] }
%"class.OpenImageIO::v3_1_0::basic_string_view" = type { ptr, i64 }

@.str = private unnamed_addr constant [5 x i8] c"V2.0\00", align 1

; Function Attrs: noinline noreturn nounwind uwtable
define linkonce_odr hidden void @__clang_call_terminate(ptr noundef %0) #11 comdat {
  %2 = call ptr @__cxa_begin_catch(ptr %0) #5
  call void @_ZSt9terminatev() #22
  unreachable
}

; Function Attrs: mustprogress nounwind uwtable
define linkonce_odr noundef i64 @_ZNSt11char_traitsIcE6lengthEPKc(ptr noundef %0) #6 comdat align 2 {
  %2 = alloca ptr, align 8
  store ptr %0, ptr %2, align 8, !tbaa !45
  %3 = load ptr, ptr %2, align 8, !tbaa !45
  %4 = call i64 @strlen(ptr noundef %3) #5
  ret i64 %4
}

; Function Attrs: mustprogress nounwind uwtable
define linkonce_odr noundef float @_ZNSt14numeric_limitsIfE9quiet_NaNEv() #6 comdat align 2 {
  ret float 0x7FF8000000000000
}

; Function Attrs: mustprogress nounwind uwtable
define linkonce_odr hidden void @_ZN11OpenImageIO6v3_1_017basic_string_viewIcSt11char_traitsIcEEC2EPKc(ptr noundef nonnull align 8 dereferenceable(16) %0, ptr noundef %1) unnamed_addr #6 comdat align 2 personality ptr @__gxx_personality_v0 {
  %3 = alloca ptr, align 8
  %4 = alloca ptr, align 8
  store ptr %0, ptr %3, align 8, !tbaa !49
  store ptr %1, ptr %4, align 8, !tbaa !45
  %5 = load ptr, ptr %3, align 8
  %6 = getelementptr inbounds nuw %"class.OpenImageIO::v3_1_0::basic_string_view", ptr %5, i32 0, i32 0
  %7 = load ptr, ptr %4, align 8, !tbaa !45
  store ptr %7, ptr %6, align 8, !tbaa !51
  %8 = getelementptr inbounds nuw %"class.OpenImageIO::v3_1_0::basic_string_view", ptr %5, i32 0, i32 1
  %9 = load ptr, ptr %4, align 8, !tbaa !45
  %10 = icmp ne ptr %9, null
  br i1 %10, label %11, label %15

11:                                               ; preds = %2
  %12 = load ptr, ptr %4, align 8, !tbaa !45
  %13 = invoke noundef i64 @_ZNSt11char_traitsIcE6lengthEPKc(ptr noundef %12)
          to label %14 unwind label %18

14:                                               ; preds = %11
  br label %16

15:                                               ; preds = %2
  br label %16

16:                                               ; preds = %15, %14
  %17 = phi i64 [ %13, %14 ], [ 0, %15 ]
  store i64 %17, ptr %8, align 8, !tbaa !54
  ret void

18:                                               ; preds = %11
  %19 = landingpad { ptr, i32 }
          catch ptr null
  %20 = extractvalue { ptr, i32 } %19, 0
  call void @__clang_call_terminate(ptr %20) #22
  unreachable
}

; Function Attrs: mustprogress nounwind uwtable
define internal void @_ZL11EmptyStringPci(ptr noundef %0, i32 noundef %1) #6 {
  %3 = alloca ptr, align 8
  %4 = alloca i32, align 4
  %5 = alloca i32, align 4
  store ptr %0, ptr %3, align 8, !tbaa !45
  store i32 %1, ptr %4, align 4, !tbaa !42
  call void @llvm.lifetime.start.p0(i64 4, ptr %5) #5
  store i32 0, ptr %5, align 4, !tbaa !42
  br label %6

6:                                                ; preds = %16, %2
  %7 = load i32, ptr %5, align 4, !tbaa !42
  %8 = load i32, ptr %4, align 4, !tbaa !42
  %9 = icmp slt i32 %7, %8
  br i1 %9, label %11, label %10

10:                                               ; preds = %6
  call void @llvm.lifetime.end.p0(i64 4, ptr %5) #5
  br label %19

11:                                               ; preds = %6
  %12 = load ptr, ptr %3, align 8, !tbaa !45
  %13 = load i32, ptr %5, align 4, !tbaa !42
  %14 = sext i32 %13 to i64
  %15 = getelementptr inbounds i8, ptr %12, i64 %14
  store i8 0, ptr %15, align 1, !tbaa !8
  br label %16

16:                                               ; preds = %11
  %17 = load i32, ptr %5, align 4, !tbaa !42
  %18 = add nsw i32 %17, 1
  store i32 %18, ptr %5, align 4, !tbaa !42
  br label %6, !llvm.loop !47

19:                                               ; preds = %10
  ret void
}

; Function Attrs: mustprogress uwtable
define hidden void @_ZN3dpx13GenericHeader5ResetEv(ptr noundef nonnull align 4 dereferenceable(1664) %0) #7 align 2 {
  %2 = alloca ptr, align 8
  %3 = alloca %"class.OpenImageIO::v3_1_0::basic_string_view", align 8
  store ptr %0, ptr %2, align 8, !tbaa !19
  %4 = load ptr, ptr %2, align 8
  %5 = getelementptr inbounds nuw %"struct.dpx::GenericHeader", ptr %4, i32 0, i32 0
  store i32 1396985944, ptr %5, align 4, !tbaa !23
  %6 = getelementptr inbounds nuw %"struct.dpx::GenericHeader", ptr %4, i32 0, i32 1
  store i32 -1, ptr %6, align 4, !tbaa !24
  %7 = getelementptr inbounds nuw %"struct.dpx::GenericHeader", ptr %4, i32 0, i32 2
  %8 = getelementptr inbounds [8 x i8], ptr %7, i64 0, i64 0
  call void @_ZL11EmptyStringPci(ptr noundef %8, i32 noundef 8)
  %9 = getelementptr inbounds nuw %"struct.dpx::GenericHeader", ptr %4, i32 0, i32 2
  %10 = getelementptr inbounds [8 x i8], ptr %9, i64 0, i64 0
  call void @_ZN11OpenImageIO6v3_1_017basic_string_viewIcSt11char_traitsIcEEC2EPKc(ptr noundef nonnull align 8 dereferenceable(16) %3, ptr noundef @.str) #5
  %11 = call noundef ptr @_ZN11OpenImageIO6v3_1_07Strutil11safe_strcpyEPcNS0_17basic_string_viewIcSt11char_traitsIcEEEm(ptr noundef %10, ptr noundef %3, i64 noundef 8) #5
  %12 = getelementptr inbounds nuw %"struct.dpx::GenericHeader", ptr %4, i32 0, i32 3
  store i32 2052, ptr %12, align 4, !tbaa !25
  %13 = getelementptr inbounds nuw %"struct.dpx::GenericHeader", ptr %4, i32 0, i32 4
  store i32 1, ptr %13, align 4, !tbaa !26
  %14 = getelementptr inbounds nuw %"struct.dpx::GenericHeader", ptr %4, i32 0, i32 5
  store i32 1664, ptr %14, align 4, !tbaa !27
  %15 = getelementptr inbounds nuw %"struct.dpx::GenericHeader", ptr %4, i32 0, i32 6
  store i32 384, ptr %15, align 4, !tbaa !28
  %16 = getelementptr inbounds nuw %"struct.dpx::GenericHeader", ptr %4, i32 0, i32 7
  store i32 0, ptr %16, align 4, !tbaa !29
  %17 = getelementptr inbounds nuw %"struct.dpx::GenericHeader", ptr %4, i32 0, i32 8
  %18 = getelementptr inbounds [100 x i8], ptr %17, i64 0, i64 0
  call void @_ZL11EmptyStringPci(ptr noundef %18, i32 noundef 100)
  %19 = getelementptr inbounds nuw %"struct.dpx::GenericHeader", ptr %4, i32 0, i32 9
  %20 = getelementptr inbounds [24 x i8], ptr %19, i64 0, i64 0
  call void @_ZL11EmptyStringPci(ptr noundef %20, i32 noundef 24)
  %21 = getelementptr inbounds nuw %"struct.dpx::GenericHeader", ptr %4, i32 0, i32 10
  %22 = getelementptr inbounds [100 x i8], ptr %21, i64 0, i64 0
  call void @_ZL11EmptyStringPci(ptr noundef %22, i32 noundef 100)
  %23 = getelementptr inbounds nuw %"struct.dpx::GenericHeader", ptr %4, i32 0, i32 11
  %24 = getelementptr inbounds [200 x i8], ptr %23, i64 0, i64 0
  call void @_ZL11EmptyStringPci(ptr noundef %24, i32 noundef 200)
  %25 = getelementptr inbounds nuw %"struct.dpx::GenericHeader", ptr %4, i32 0, i32 12
  %26 = getelementptr inbounds [200 x i8], ptr %25, i64 0, i64 0
  call void @_ZL11EmptyStringPci(ptr noundef %26, i32 noundef 200)
  %27 = getelementptr inbounds nuw %"struct.dpx::GenericHeader", ptr %4, i32 0, i32 13
  store i32 -1, ptr %27, align 4, !tbaa !30
  %28 = getelementptr inbounds nuw %"struct.dpx::GenericHeader", ptr %4, i32 0, i32 14
  %29 = getelementptr inbounds [104 x i8], ptr %28, i64 0, i64 0
  call void @_ZL11EmptyStringPci(ptr noundef %29, i32 noundef 104)
  %30 = getelementptr inbounds nuw %"struct.dpx::GenericHeader", ptr %4, i32 0, i32 15
  store i16 -1, ptr %30, align 4, !tbaa !31
  %31 = getelementptr inbounds nuw %"struct.dpx::GenericHeader", ptr %4, i32 0, i32 16
  store i16 -1, ptr %31, align 2, !tbaa !32
  %32 = getelementptr inbounds nuw %"struct.dpx::GenericHeader", ptr %4, i32 0, i32 18
  store i32 -1, ptr %32, align 4, !tbaa !33
  %33 = getelementptr inbounds nuw %"struct.dpx::GenericHeader", ptr %4, i32 0, i32 17
  store i32 -1, ptr %33, align 4, !tbaa !34
  %34 = getelementptr inbounds nuw %"struct.dpx::GenericHeader", ptr %4, i32 0, i32 20
  %35 = getelementptr inbounds [52 x i8], ptr %34, i64 0, i64 0
  call void @_ZL11EmptyStringPci(ptr noundef %35, i32 noundef 52)
  %36 = getelementptr inbounds nuw %"struct.dpx::GenericHeader", ptr %4, i32 0, i32 22
  store i32 -1, ptr %36, align 4, !tbaa !35
  %37 = getelementptr inbounds nuw %"struct.dpx::GenericHeader", ptr %4, i32 0, i32 21
  store i32 -1, ptr %37, align 4, !tbaa !36
  %38 = call noundef float @_ZNSt14numeric_limitsIfE9quiet_NaNEv() #5
  %39 = getelementptr inbounds nuw %"struct.dpx::GenericHeader", ptr %4, i32 0, i32 24
  store float %38, ptr %39, align 4, !tbaa !37
  %40 = getelementptr inbounds nuw %"struct.dpx::GenericHeader", ptr %4, i32 0, i32 23
  store float %38, ptr %40, align 4, !tbaa !38
  %41 = getelementptr inbounds nuw %"struct.dpx::GenericHeader", ptr %4, i32 0, i32 26
  store i32 -1, ptr %41, align 4, !tbaa !39
  %42 = getelementptr inbounds nuw %"struct.dpx::GenericHeader", ptr %4, i32 0, i32 25
  store i32 -1, ptr %42, align 4, !tbaa !40
  %43 = getelementptr inbounds nuw %"struct.dpx::GenericHeader", ptr %4, i32 0, i32 27
  %44 = getelementptr inbounds [100 x i8], ptr %43, i64 0, i64 0
  call void @_ZL11EmptyStringPci(ptr noundef %44, i32 noundef 100)
  %45 = getelementptr inbounds nuw %"struct.dpx::GenericHeader", ptr %4, i32 0, i32 28
  %46 = getelementptr inbounds [24 x i8], ptr %45, i64 0, i64 0
  call void @_ZL11EmptyStringPci(ptr noundef %46, i32 noundef 24)
  %47 = getelementptr inbounds nuw %"struct.dpx::GenericHeader", ptr %4, i32 0, i32 29
  %48 = getelementptr inbounds [32 x i8], ptr %47, i64 0, i64 0
  call void @_ZL11EmptyStringPci(ptr noundef %48, i32 noundef 32)
  %49 = getelementptr inbounds nuw %"struct.dpx::GenericHeader", ptr %4, i32 0, i32 30
  %50 = getelementptr inbounds [32 x i8], ptr %49, i64 0, i64 0
  call void @_ZL11EmptyStringPci(ptr noundef %50, i32 noundef 32)
  %51 = getelementptr inbounds nuw %"struct.dpx::GenericHeader", ptr %4, i32 0, i32 31
  %52 = getelementptr inbounds [4 x i16], ptr %51, i64 0, i64 3
  store i16 -1, ptr %52, align 2, !tbaa !41
  %53 = getelementptr inbounds nuw %"struct.dpx::GenericHeader", ptr %4, i32 0, i32 31
  %54 = getelementptr inbounds [4 x i16], ptr %53, i64 0, i64 2
  store i16 -1, ptr %54, align 4, !tbaa !41
  %55 = getelementptr inbounds nuw %"struct.dpx::GenericHeader", ptr %4, i32 0, i32 31
  %56 = getelementptr inbounds [4 x i16], ptr %55, i64 0, i64 1
  store i16 -1, ptr %56, align 2, !tbaa !41
  %57 = getelementptr inbounds nuw %"struct.dpx::GenericHeader", ptr %4, i32 0, i32 31
  %58 = getelementptr inbounds [4 x i16], ptr %57, i64 0, i64 0
  store i16 -1, ptr %58, align 4, !tbaa !41
  %59 = getelementptr inbounds nuw %"struct.dpx::GenericHeader", ptr %4, i32 0, i32 32
  %60 = getelementptr inbounds [2 x i32], ptr %59, i64 0, i64 1
  store i32 -1, ptr %60, align 4, !tbaa !42
  %61 = getelementptr inbounds nuw %"struct.dpx::GenericHeader", ptr %4, i32 0, i32 32
  %62 = getelementptr inbounds [2 x i32], ptr %61, i64 0, i64 0
  store i32 -1, ptr %62, align 4, !tbaa !42
  %63 = call noundef float @_ZNSt14numeric_limitsIfE9quiet_NaNEv() #5
  %64 = getelementptr inbounds nuw %"struct.dpx::GenericHeader", ptr %4, i32 0, i32 34
  store float %63, ptr %64, align 4, !tbaa !43
  %65 = getelementptr inbounds nuw %"struct.dpx::GenericHeader", ptr %4, i32 0, i32 33
  store float %63, ptr %65, align 4, !tbaa !44
  %66 = getelementptr inbounds nuw %"struct.dpx::GenericHeader", ptr %4, i32 0, i32 35
  %67 = getelementptr inbounds [20 x i8], ptr %66, i64 0, i64 0
  call void @_ZL11EmptyStringPci(ptr noundef %67, i32 noundef 20)
  ret void
}