; Function Attrs: mustprogress nounwind uwtable
define hidden void @_ZN3dpx13GenericHeader5ResetEv(ptr noundef nonnull align 4 dereferenceable(1664) initializes((0, 16)) %0) local_unnamed_addr #6 align 2 personality ptr @__gxx_personality_v0 {
  %2 = alloca %"class.OpenImageIO::v3_1_0::basic_string_view", align 8
  store i32 1396985944, ptr %0, align 4, !tbaa !15
  %3 = getelementptr inbounds nuw i8, ptr %0, i64 4
  store i32 -1, ptr %3, align 4, !tbaa !17
  %4 = getelementptr inbounds nuw i8, ptr %0, i64 8
  store i64 0, ptr %4, align 4
  store ptr @.str, ptr %2, align 8, !tbaa !18
  %5 = getelementptr inbounds nuw i8, ptr %2, i64 8
  store i64 4, ptr %5, align 8, !tbaa !23
  %6 = call noundef ptr @_ZN11OpenImageIO6v3_1_07Strutil11safe_strcpyEPcNS0_17basic_string_viewIcSt11char_traitsIcEEEm(ptr noundef nonnull %4, ptr noundef nonnull %2, i64 noundef 8) #29
  %7 = getelementptr inbounds nuw i8, ptr %0, i64 16
  store i32 2052, ptr %7, align 4, !tbaa !24
  %8 = getelementptr inbounds nuw i8, ptr %0, i64 20
  store i32 1, ptr %8, align 4, !tbaa !25
  %9 = getelementptr inbounds nuw i8, ptr %0, i64 24
  store i32 1664, ptr %9, align 4, !tbaa !26
  %10 = getelementptr inbounds nuw i8, ptr %0, i64 28
  store i32 384, ptr %10, align 4, !tbaa !27
  %11 = getelementptr inbounds nuw i8, ptr %0, i64 32
  %12 = getelementptr inbounds nuw i8, ptr %0, i64 660
  call void @llvm.memset.p0.i64(ptr noundef nonnull align 4 dereferenceable(628) %11, i8 0, i64 628, i1 false)
  store i32 -1, ptr %12, align 4, !tbaa !28
  %13 = getelementptr inbounds nuw i8, ptr %0, i64 664
  call void @llvm.memset.p0.i64(ptr noundef nonnull align 4 dereferenceable(104) %13, i8 0, i64 104, i1 false), !tbaa !14
  %14 = getelementptr inbounds nuw i8, ptr %0, i64 768
  %15 = getelementptr inbounds nuw i8, ptr %0, i64 1356
  call void @llvm.memset.p0.i64(ptr noundef nonnull align 4 dereferenceable(12) %14, i8 -1, i64 12, i1 false)
  call void @llvm.memset.p0.i64(ptr noundef nonnull align 4 dereferenceable(52) %15, i8 0, i64 52, i1 false), !tbaa !14
  %16 = getelementptr inbounds nuw i8, ptr %0, i64 1412
  store i32 -1, ptr %16, align 4, !tbaa !29
  %17 = getelementptr inbounds nuw i8, ptr %0, i64 1408
  store i32 -1, ptr %17, align 4, !tbaa !30
  %18 = getelementptr inbounds nuw i8, ptr %0, i64 1420
  store float 0x7FF8000000000000, ptr %18, align 4, !tbaa !31
  %19 = getelementptr inbounds nuw i8, ptr %0, i64 1416
  store float 0x7FF8000000000000, ptr %19, align 4, !tbaa !32
  %20 = getelementptr inbounds nuw i8, ptr %0, i64 1428
  store i32 -1, ptr %20, align 4, !tbaa !33
  %21 = getelementptr inbounds nuw i8, ptr %0, i64 1424
  store i32 -1, ptr %21, align 4, !tbaa !34
  %22 = getelementptr inbounds nuw i8, ptr %0, i64 1432
  %23 = getelementptr inbounds nuw i8, ptr %0, i64 1620
  call void @llvm.memset.p0.i64(ptr noundef nonnull align 4 dereferenceable(188) %22, i8 0, i64 188, i1 false)
  %24 = getelementptr inbounds nuw i8, ptr %0, i64 1640
  call void @llvm.memset.p0.i64(ptr noundef nonnull align 4 dereferenceable(16) %23, i8 -1, i64 16, i1 false)
  store float 0x7FF8000000000000, ptr %24, align 4, !tbaa !35
  %25 = getelementptr inbounds nuw i8, ptr %0, i64 1636
  store float 0x7FF8000000000000, ptr %25, align 4, !tbaa !36
  %26 = getelementptr inbounds nuw i8, ptr %0, i64 1644
  call void @llvm.memset.p0.i64(ptr noundef nonnull align 4 dereferenceable(20) %26, i8 0, i64 20, i1 false), !tbaa !14
  ret void
}